target datalayout = "e-m:e-p270:32:32-p271:32:32-p272:64:64-i64:64-i128:128-f80:128-n8:16:32:64-S128"
target triple = "x86_64-pc-linux-gnu"

%struct.SDL_IOStreamInterface = type { i32, ptr, ptr, ptr, ptr, ptr, ptr }
%struct.SDL_IOStream = type { %struct.SDL_IOStreamInterface, ptr, i32, i32 }

@.str.2 = private unnamed_addr constant [26 x i8] c"Parameter '%s' is invalid\00", align 1
@.str.11 = private unnamed_addr constant [8 x i8] c"context\00", align 1

; Function Attrs: nounwind uwtable
define hidden zeroext i1 @SDL_FlushIO_REAL(ptr noundef %0) #0 {
  %2 = alloca i1, align 1
  %3 = alloca ptr, align 8
  %4 = alloca i8, align 1
  %5 = alloca i32, align 4
  store ptr %0, ptr %3, align 8
  call void @llvm.lifetime.start.p0(i64 1, ptr %4) #11
  store i8 1, ptr %4, align 1
  %6 = load ptr, ptr %3, align 8
  %7 = icmp ne ptr %6, null
  br i1 %7, label %10, label %8

8:                                                ; preds = %1
  %9 = call zeroext i1 (ptr, ...) @SDL_SetError_REAL(ptr noundef @.str.2, ptr noundef @.str.11)
  store i1 %9, ptr %2, align 1
  store i32 1, ptr %5, align 4
  br label %45

10:                                               ; preds = %1
  %11 = load ptr, ptr %3, align 8
  %12 = getelementptr inbounds nuw %struct.SDL_IOStream, ptr %11, i32 0, i32 2
  store i32 0, ptr %12, align 8
  %13 = call zeroext i1 @SDL_ClearError_REAL()
  %14 = load ptr, ptr %3, align 8
  %15 = getelementptr inbounds nuw %struct.SDL_IOStream, ptr %14, i32 0, i32 0
  %16 = getelementptr inbounds nuw %struct.SDL_IOStreamInterface, ptr %15, i32 0, i32 5
  %17 = load ptr, ptr %16, align 8
  %18 = icmp ne ptr %17, null
  br i1 %18, label %19, label %31

19:                                               ; preds = %10
  %20 = load ptr, ptr %3, align 8
  %21 = getelementptr inbounds nuw %struct.SDL_IOStream, ptr %20, i32 0, i32 0
  %22 = getelementptr inbounds nuw %struct.SDL_IOStreamInterface, ptr %21, i32 0, i32 5
  %23 = load ptr, ptr %22, align 8
  %24 = load ptr, ptr %3, align 8
  %25 = getelementptr inbounds nuw %struct.SDL_IOStream, ptr %24, i32 0, i32 1
  %26 = load ptr, ptr %25, align 8
  %27 = load ptr, ptr %3, align 8
  %28 = getelementptr inbounds nuw %struct.SDL_IOStream, ptr %27, i32 0, i32 2
  %29 = call zeroext i1 %23(ptr noundef %26, ptr noundef %28)
  %30 = zext i1 %29 to i8
  store i8 %30, ptr %4, align 1
  br label %31

31:                                               ; preds = %19, %10
  %32 = load i8, ptr %4, align 1, !range !3, !noundef !4
  %33 = trunc i8 %32 to i1
  br i1 %33, label %42, label %34

34:                                               ; preds = %31
  %35 = load ptr, ptr %3, align 8
  %36 = getelementptr inbounds nuw %struct.SDL_IOStream, ptr %35, i32 0, i32 2
  %37 = load i32, ptr %36, align 8
  %38 = icmp eq i32 %37, 0
  br i1 %38, label %39, label %42

39:                                               ; preds = %34
  %40 = load ptr, ptr %3, align 8
  %41 = getelementptr inbounds nuw %struct.SDL_IOStream, ptr %40, i32 0, i32 2
  store i32 1, ptr %41, align 8
  br label %42

42:                                               ; preds = %39, %34, %31
  %43 = load i8, ptr %4, align 1, !range !3, !noundef !4
  %44 = trunc i8 %43 to i1
  store i1 %44, ptr %2, align 1
  store i32 1, ptr %5, align 4
  br label %45

45:                                               ; preds = %42, %8
  call void @llvm.lifetime.end.p0(i64 1, ptr %4) #11
  %46 = load i1, ptr %2, align 1
  ret i1 %46
}