; Function Attrs: nounwind uwtable
define hidden zeroext i1 @SDL_FlushIO_REAL(ptr noundef %0) local_unnamed_addr #0 {
  %.not = icmp eq ptr %0, null
  br i1 %.not, label %2, label %4

2:                                                ; preds = %1
  %3 = tail call zeroext i1 (ptr, ...) @SDL_SetError_REAL(ptr noundef nonnull @.str.2, ptr noundef nonnull @.str.11) #18
  br label %.thread

4:                                                ; preds = %1
  %5 = getelementptr inbounds nuw i8, ptr %0, i64 64
  store i32 0, ptr %5, align 8
  %6 = tail call zeroext i1 @SDL_ClearError_REAL() #18
  %7 = getelementptr inbounds nuw i8, ptr %0, i64 40
  %8 = load ptr, ptr %7, align 8
  %.not13 = icmp eq ptr %8, null
  br i1 %.not13, label %.thread, label %9

9:                                                ; preds = %4
  %10 = getelementptr inbounds nuw i8, ptr %0, i64 56
  %11 = load ptr, ptr %10, align 8
  %12 = tail call zeroext i1 %8(ptr noundef %11, ptr noundef nonnull %5) #18
  br i1 %12, label %.thread, label %13

13:                                               ; preds = %9
  %14 = load i32, ptr %5, align 8
  %15 = icmp eq i32 %14, 0
  br i1 %15, label %16, label %.thread

16:                                               ; preds = %13
  store i32 1, ptr %5, align 8
  br label %.thread

.thread:                                          ; preds = %4, %9, %13, %16, %2
  %.010 = phi i1 [ %3, %2 ], [ false, %16 ], [ false, %13 ], [ true, %9 ], [ true, %4 ]
  ret i1 %.010
}